(dp0
(F10.889473551256568
F13.49666397818293
tp1
(dp2
S'00:0F:61:54:5F:62'
p3
I48
sS'00:0F:61:54:5F:63'
p4
I56
sS'00:0F:61:54:5F:60'
p5
I56
sS'E8:39:35:F5:AC:F0'
p6
I76
sS'00:0F:61:53:E6:B0'
p7
I60
sS'00:0F:61:54:5F:64'
p8
I56
sS'00:0F:61:53:E6:B2'
p9
I58
sS'00:0F:61:53:E6:B3'
p10
I70
sS'00:03:52:5B:8C:A5'
p11
I100
sS'E8:39:35:F5:AC:F4'
p12
I76
sS'00:03:52:5B:8C:A0'
p13
I88
sS'00:03:52:5B:8C:A2'
p14
I100
sS'58:6D:8F:02:B7:DC'
p15
I58
sS'00:03:52:5B:8C:A4'
p16
I100
sS'E8:39:35:F5:AC:F2'
p17
I76
sS'00:0F:61:53:E6:B5'
p18
I60
sS'E8:39:35:F5:AC:F5'
p19
I76
sS'54:A0:50:5B:20:80'
p20
I56
sS'54:A0:50:5B:4D:E8'
p21
I88
sS'E8:39:35:F5:FC:70'
p22
I56
ss(F16.50241419808042
F19.254584549795542
tp23
(dp24
S'00:0F:61:53:E6:B5'
p25
I92
sS'00:0F:61:53:E6:B4'
p26
I92
sS'E8:39:35:F5:FC:70'
p27
I100
sS'00:0F:61:53:E6:B0'
p28
I92
sS'00:0F:61:53:E6:B3'
p29
I92
sS'00:0F:61:53:E6:B2'
p30
I92
sS'00:03:52:5B:8C:A4'
p31
I74
sS'00:03:52:5B:8C:A5'
p32
I74
sS'E8:39:35:F5:AC:F4'
p33
I44
sS'00:03:52:5B:8C:A0'
p34
I74
sS'00:03:52:5B:8C:A2'
p35
I74
sS'00:0F:61:51:EE:C4'
p36
I58
sS'00:0F:61:51:EE:C0'
p37
I58
sS'00:0F:61:51:EE:C3'
p38
I58
sS'00:0F:61:51:EE:C2'
p39
I58
sS'54:A0:50:5B:20:80'
p40
I47
sS'54:A0:50:5B:4D:E8'
p41
I42
sS'54:A0:50:5B:32:58'
p42
I100
sS'E8:39:35:F5:FC:76'
p43
I100
ss(F14.24296690864619
F19.197025440397027
tp44
(dp45
S'00:0F:61:53:E6:B5'
p46
I92
sS'00:0F:61:53:E6:B4'
p47
I92
sS'E8:39:35:F5:FC:70'
p48
I100
sS'00:0F:61:53:E6:B0'
p49
I92
sS'00:0F:61:53:E6:B3'
p50
I92
sS'00:0F:61:53:E6:B2'
p51
I92
sS'00:03:52:5B:8C:A4'
p52
I74
sS'00:03:52:5B:8C:A5'
p53
I74
sS'E8:39:35:F5:AC:F4'
p54
I44
sS'00:03:52:5B:8C:A0'
p55
I74
sS'00:03:52:5B:8C:A2'
p56
I74
sS'00:0F:61:51:EE:C4'
p57
I58
sS'00:0F:61:51:EE:C0'
p58
I58
sS'00:0F:61:51:EE:C3'
p59
I58
sS'00:0F:61:51:EE:C2'
p60
I58
sS'54:A0:50:5B:20:80'
p61
I47
sS'54:A0:50:5B:4D:E8'
p62
I42
sS'54:A0:50:5B:32:58'
p63
I100
sS'E8:39:35:F5:FC:76'
p64
I100
ss(F13.93395949666541
F6.03341525355908
tp65
(dp66
S'E8:39:35:F5:AC:F2'
p67
I76
sS'E8:39:35:F5:AC:F0'
p68
I76
sS'E8:39:35:F5:AC:F5'
p69
I76
sS'E8:39:35:F5:AC:F4'
p70
I76
sS'54:A0:50:5B:4D:E8'
p71
I43
sS'E8:39:35:F5:FC:70'
p72
I56
sS'E8:39:35:F5:FC:76'
p73
I100
sS'E8:39:35:F5:FC:74'
p74
I100
sS'00:03:52:5B:8C:A4'
p75
I92
sS'00:03:52:5B:8C:A5'
p76
I92
sS'00:03:52:5B:8C:A0'
p77
I92
sS'00:03:52:5B:8C:A2'
p78
I96
sS'54:A0:50:5B:20:80'
p79
I56
sS'00:0F:61:53:E6:B5'
p80
I56
sS'00:0F:61:53:E6:B4'
p81
I56
sS'00:0F:61:53:E6:B0'
p82
I56
sS'00:0F:61:53:E6:B3'
p83
I48
sS'00:0F:61:53:E6:B2'
p84
I48
sS'E8:39:35:F5:FC:54'
p85
I47
sS'00:0F:61:54:5F:62'
p86
I48
sS'00:0F:61:54:5F:63'
p87
I56
sS'00:0F:61:54:5F:60'
p88
I56
sS'00:0F:61:54:5F:64'
p89
I56
sS'58:6D:8F:02:B7:DC'
p90
I58
sS'54:A0:50:5B:32:58'
p91
I100
ss(F23.35417288060182
F8.774844666521902
tp92
(dp93
S'00:0F:61:53:E6:B5'
p94
I92
sS'00:0F:61:53:E6:B4'
p95
I92
sS'E8:39:35:F5:FC:70'
p96
I100
sS'00:0F:61:53:E6:B0'
p97
I92
sS'00:0F:61:53:E6:B3'
p98
I92
sS'00:0F:61:53:E6:B2'
p99
I92
sS'00:03:52:5B:8C:A4'
p100
I74
sS'00:03:52:5B:8C:A5'
p101
I74
sS'E8:39:35:F5:AC:F4'
p102
I44
sS'00:03:52:5B:8C:A0'
p103
I74
sS'00:03:52:5B:8C:A2'
p104
I74
sS'00:0F:61:51:EE:C4'
p105
I58
sS'00:0F:61:51:EE:C0'
p106
I58
sS'00:0F:61:51:EE:C3'
p107
I58
sS'00:0F:61:51:EE:C2'
p108
I58
sS'54:A0:50:5B:20:80'
p109
I47
sS'54:A0:50:5B:4D:E8'
p110
I42
sS'54:A0:50:5B:32:58'
p111
I100
sS'E8:39:35:F5:FC:76'
p112
I100
ss(F11.207269254260298
F15.786165717920587
tp113
(dp114
S'E8:39:35:F5:AC:F2'
p115
I76
sS'E8:39:35:F5:AC:F0'
p116
I76
sS'E8:39:35:F5:AC:F5'
p117
I76
sS'E8:39:35:F5:AC:F4'
p118
I76
sS'54:A0:50:5B:4D:E8'
p119
I88
sS'E8:39:35:F5:FC:70'
p120
I56
sS'00:03:52:5B:8C:A4'
p121
I100
sS'00:03:52:5B:8C:A5'
p122
I100
sS'00:03:52:5B:8C:A0'
p123
I88
sS'00:03:52:5B:8C:A2'
p124
I100
sS'54:A0:50:5B:20:80'
p125
I56
sS'00:0F:61:53:E6:B5'
p126
I60
sS'00:0F:61:53:E6:B4'
p127
I56
sS'00:0F:61:53:E6:B0'
p128
I60
sS'00:0F:61:53:E6:B3'
p129
I70
sS'00:0F:61:53:E6:B2'
p130
I58
sS'00:0F:61:54:5F:62'
p131
I48
sS'00:0F:61:54:5F:63'
p132
I56
sS'00:0F:61:54:5F:60'
p133
I56
sS'00:0F:61:54:5F:64'
p134
I56
sS'58:6D:8F:02:B7:DC'
p135
I58
sS'54:A0:50:5B:32:58'
p136
I44
ss(F23.579351504914648
F15.78746046525743
tp137
(dp138
S'00:0F:61:53:E6:B5'
p139
I92
sS'00:0F:61:53:E6:B4'
p140
I92
sS'E8:39:35:F5:FC:70'
p141
I100
sS'00:0F:61:53:E6:B0'
p142
I92
sS'00:0F:61:53:E6:B3'
p143
I92
sS'00:0F:61:53:E6:B2'
p144
I92
sS'00:03:52:5B:8C:A4'
p145
I74
sS'00:03:52:5B:8C:A5'
p146
I74
sS'E8:39:35:F5:AC:F4'
p147
I44
sS'00:03:52:5B:8C:A0'
p148
I74
sS'00:03:52:5B:8C:A2'
p149
I74
sS'00:0F:61:51:EE:C4'
p150
I58
sS'00:0F:61:51:EE:C0'
p151
I58
sS'00:0F:61:51:EE:C3'
p152
I58
sS'00:0F:61:51:EE:C2'
p153
I58
sS'54:A0:50:5B:20:80'
p154
I47
sS'54:A0:50:5B:4D:E8'
p155
I42
sS'54:A0:50:5B:32:58'
p156
I100
sS'E8:39:35:F5:FC:76'
p157
I100
ss(F19.783995529959288
F19.04177690241474
tp158
(dp159
S'00:0F:61:53:E6:B5'
p160
I92
sS'00:0F:61:53:E6:B4'
p161
I92
sS'E8:39:35:F5:FC:70'
p162
I100
sS'00:0F:61:53:E6:B0'
p163
I92
sS'00:0F:61:53:E6:B3'
p164
I92
sS'00:0F:61:53:E6:B2'
p165
I92
sS'00:03:52:5B:8C:A4'
p166
I74
sS'00:03:52:5B:8C:A5'
p167
I74
sS'E8:39:35:F5:AC:F4'
p168
I44
sS'00:03:52:5B:8C:A0'
p169
I74
sS'00:03:52:5B:8C:A2'
p170
I74
sS'00:0F:61:51:EE:C4'
p171
I58
sS'00:0F:61:51:EE:C0'
p172
I58
sS'00:0F:61:51:EE:C3'
p173
I58
sS'00:0F:61:51:EE:C2'
p174
I58
sS'54:A0:50:5B:20:80'
p175
I47
sS'54:A0:50:5B:4D:E8'
p176
I42
sS'54:A0:50:5B:32:58'
p177
I100
sS'E8:39:35:F5:FC:76'
p178
I100
ss(F11.883721478267114
F6.450266450533288
tp179
(dp180
S'00:0F:61:54:5F:62'
p181
I48
sS'00:0F:61:54:5F:63'
p182
I56
sS'00:0F:61:54:5F:60'
p183
I56
sS'E8:39:35:F5:AC:F0'
p184
I76
sS'00:0F:61:53:E6:B0'
p185
I60
sS'00:0F:61:54:5F:64'
p186
I56
sS'00:0F:61:53:E6:B2'
p187
I58
sS'00:0F:61:53:E6:B3'
p188
I70
sS'00:03:52:5B:8C:A5'
p189
I100
sS'E8:39:35:F5:AC:F4'
p190
I76
sS'00:03:52:5B:8C:A0'
p191
I88
sS'00:03:52:5B:8C:A2'
p192
I100
sS'58:6D:8F:02:B7:DC'
p193
I58
sS'00:03:52:5B:8C:A4'
p194
I100
sS'E8:39:35:F5:AC:F2'
p195
I76
sS'00:0F:61:53:E6:B5'
p196
I60
sS'E8:39:35:F5:AC:F5'
p197
I76
sS'54:A0:50:5B:20:80'
p198
I56
sS'54:A0:50:5B:4D:E8'
p199
I88
sS'E8:39:35:F5:FC:70'
p200
I56
ss(F23.73276773166525
F6.646706064008584
tp201
(dp202
S'00:0F:61:53:E6:B5'
p203
I92
sS'00:0F:61:53:E6:B4'
p204
I92
sS'E8:39:35:F5:FC:70'
p205
I100
sS'00:0F:61:53:E6:B0'
p206
I92
sS'00:0F:61:53:E6:B3'
p207
I92
sS'00:0F:61:53:E6:B2'
p208
I92
sS'00:03:52:5B:8C:A4'
p209
I74
sS'00:03:52:5B:8C:A5'
p210
I74
sS'E8:39:35:F5:AC:F4'
p211
I44
sS'00:03:52:5B:8C:A0'
p212
I74
sS'00:03:52:5B:8C:A2'
p213
I74
sS'00:0F:61:51:EE:C4'
p214
I58
sS'00:0F:61:51:EE:C0'
p215
I58
sS'00:0F:61:51:EE:C3'
p216
I58
sS'00:0F:61:51:EE:C2'
p217
I58
sS'54:A0:50:5B:20:80'
p218
I47
sS'54:A0:50:5B:4D:E8'
p219
I42
sS'54:A0:50:5B:32:58'
p220
I100
sS'E8:39:35:F5:FC:76'
p221
I100
ss(F20.26931051682665
F5.7426486161220405
tp222
(dp223
S'00:0F:61:53:E6:B5'
p224
I92
sS'00:0F:61:53:E6:B4'
p225
I92
sS'E8:39:35:F5:FC:70'
p226
I100
sS'00:0F:61:53:E6:B0'
p227
I92
sS'00:0F:61:53:E6:B3'
p228
I92
sS'00:0F:61:53:E6:B2'
p229
I92
sS'00:03:52:5B:8C:A4'
p230
I74
sS'00:03:52:5B:8C:A5'
p231
I74
sS'E8:39:35:F5:AC:F4'
p232
I44
sS'00:03:52:5B:8C:A0'
p233
I74
sS'00:03:52:5B:8C:A2'
p234
I74
sS'00:0F:61:51:EE:C4'
p235
I58
sS'00:0F:61:51:EE:C0'
p236
I58
sS'00:0F:61:51:EE:C3'
p237
I58
sS'00:0F:61:51:EE:C2'
p238
I58
sS'54:A0:50:5B:20:80'
p239
I47
sS'54:A0:50:5B:4D:E8'
p240
I42
sS'54:A0:50:5B:32:58'
p241
I100
sS'E8:39:35:F5:FC:76'
p242
I100
ss(F18.663791568204736
F5.718030274472962
tp243
(dp244
S'00:0F:61:53:E6:B5'
p245
I56
sS'00:0F:61:53:E6:B4'
p246
I56
sS'00:0F:61:53:E6:B0'
p247
I56
sS'00:0F:61:53:E6:B3'
p248
I48
sS'00:0F:61:53:E6:B2'
p249
I48
sS'00:03:52:5B:8C:A4'
p250
I92
sS'00:03:52:5B:8C:A5'
p251
I92
sS'E8:39:35:F5:FC:74'
p252
I100
sS'00:03:52:5B:8C:A0'
p253
I92
sS'00:03:52:5B:8C:A2'
p254
I96
sS'58:6D:8F:02:B7:DC'
p255
I58
sS'E8:39:35:F5:FC:54'
p256
I47
sS'54:A0:50:5B:4D:E8'
p257
I43
sS'54:A0:50:5B:32:58'
p258
I100
sS'E8:39:35:F5:FC:76'
p259
I100
ss(F23.416072818626464
F12.310344814881883
tp260
(dp261
S'00:0F:61:53:E6:B5'
p262
I92
sS'00:0F:61:53:E6:B4'
p263
I92
sS'E8:39:35:F5:FC:70'
p264
I100
sS'00:0F:61:53:E6:B0'
p265
I92
sS'00:0F:61:53:E6:B3'
p266
I92
sS'00:0F:61:53:E6:B2'
p267
I92
sS'00:03:52:5B:8C:A4'
p268
I74
sS'00:03:52:5B:8C:A5'
p269
I74
sS'E8:39:35:F5:AC:F4'
p270
I44
sS'00:03:52:5B:8C:A0'
p271
I74
sS'00:03:52:5B:8C:A2'
p272
I74
sS'00:0F:61:51:EE:C4'
p273
I58
sS'00:0F:61:51:EE:C0'
p274
I58
sS'00:0F:61:51:EE:C3'
p275
I58
sS'00:0F:61:51:EE:C2'
p276
I58
sS'54:A0:50:5B:20:80'
p277
I47
sS'54:A0:50:5B:4D:E8'
p278
I42
sS'54:A0:50:5B:32:58'
p279
I100
sS'E8:39:35:F5:FC:76'
p280
I100
ss(F11.720469806267433
F18.22570645708417
tp281
(dp282
S'00:0F:61:54:5F:62'
p283
I56
sS'00:0F:61:54:5F:63'
p284
I58
sS'00:0F:61:54:5F:60'
p285
I48
sS'E8:39:35:F5:AC:F0'
p286
I58
sS'00:0F:61:53:E6:B3'
p287
I58
sS'00:0F:61:54:5F:64'
p288
I48
sS'00:0F:61:53:E6:B2'
p289
I56
sS'00:03:52:5B:8C:A4'
p290
I76
sS'00:03:52:5B:8C:A5'
p291
I72
sS'E8:39:35:F5:AC:F4'
p292
I74
sS'E8:39:35:F5:AC:F2'
p293
I68
sS'58:6D:8F:02:B7:DC'
p294
I55
sS'E8:39:35:F5:AC:F5'
p295
I76
sS'00:0F:61:53:E6:B4'
p296
I56
sS'00:0F:61:53:E6:B5'
p297
I56
sS'54:A0:50:5B:20:80'
p298
I70
sS'54:A0:50:5B:4D:E8'
p299
I74
sS'54:A0:50:5B:32:58'
p300
I44
ss(F10.480274555143968
F8.90347300638918
tp301
(dp302
S'00:0F:61:54:5F:62'
p303
I48
sS'00:0F:61:54:5F:63'
p304
I56
sS'00:0F:61:54:5F:60'
p305
I56
sS'E8:39:35:F5:AC:F0'
p306
I76
sS'00:0F:61:53:E6:B0'
p307
I60
sS'00:0F:61:54:5F:64'
p308
I56
sS'00:0F:61:53:E6:B2'
p309
I58
sS'00:0F:61:53:E6:B3'
p310
I70
sS'00:03:52:5B:8C:A5'
p311
I100
sS'E8:39:35:F5:AC:F4'
p312
I76
sS'00:03:52:5B:8C:A0'
p313
I88
sS'00:03:52:5B:8C:A2'
p314
I100
sS'58:6D:8F:02:B7:DC'
p315
I58
sS'00:03:52:5B:8C:A4'
p316
I100
sS'E8:39:35:F5:AC:F2'
p317
I76
sS'00:0F:61:53:E6:B5'
p318
I60
sS'E8:39:35:F5:AC:F5'
p319
I76
sS'54:A0:50:5B:20:80'
p320
I56
sS'54:A0:50:5B:4D:E8'
p321
I88
sS'E8:39:35:F5:FC:70'
p322
I56
ss(F11.640831827581371
F19.505710995516093
tp323
(dp324
S'00:0F:61:53:E6:B5'
p325
I92
sS'00:0F:61:53:E6:B4'
p326
I92
sS'E8:39:35:F5:FC:70'
p327
I100
sS'00:0F:61:53:E6:B0'
p328
I92
sS'00:0F:61:53:E6:B3'
p329
I92
sS'00:0F:61:53:E6:B2'
p330
I92
sS'00:03:52:5B:8C:A4'
p331
I74
sS'00:03:52:5B:8C:A5'
p332
I74
sS'E8:39:35:F5:AC:F4'
p333
I44
sS'00:03:52:5B:8C:A0'
p334
I74
sS'00:03:52:5B:8C:A2'
p335
I74
sS'00:0F:61:51:EE:C4'
p336
I58
sS'00:0F:61:51:EE:C0'
p337
I58
sS'00:0F:61:51:EE:C3'
p338
I58
sS'00:0F:61:51:EE:C2'
p339
I58
sS'54:A0:50:5B:20:80'
p340
I47
sS'54:A0:50:5B:4D:E8'
p341
I42
sS'54:A0:50:5B:32:58'
p342
I100
sS'E8:39:35:F5:FC:76'
p343
I100
ss(F23.620214323141962
F18.79427335271777
tp344
(dp345
S'00:0F:61:53:E6:B5'
p346
I92
sS'00:0F:61:53:E6:B4'
p347
I92
sS'E8:39:35:F5:FC:70'
p348
I100
sS'00:0F:61:53:E6:B0'
p349
I92
sS'00:0F:61:53:E6:B3'
p350
I92
sS'00:0F:61:53:E6:B2'
p351
I92
sS'00:03:52:5B:8C:A4'
p352
I74
sS'00:03:52:5B:8C:A5'
p353
I74
sS'E8:39:35:F5:AC:F4'
p354
I44
sS'00:03:52:5B:8C:A0'
p355
I74
sS'00:03:52:5B:8C:A2'
p356
I74
sS'00:0F:61:51:EE:C4'
p357
I58
sS'00:0F:61:51:EE:C0'
p358
I58
sS'00:0F:61:51:EE:C3'
p359
I58
sS'00:0F:61:51:EE:C2'
p360
I58
sS'54:A0:50:5B:20:80'
p361
I47
sS'54:A0:50:5B:4D:E8'
p362
I42
sS'54:A0:50:5B:32:58'
p363
I100
sS'E8:39:35:F5:FC:76'
p364
I100
ss.