(dp0
(F10.889473551256568
F13.49666397818293
tp1
(dp2
S'00:0F:61:54:5F:62'
p3
I48
sS'00:0F:61:54:5F:63'
p4
I56
sS'00:0F:61:54:5F:60'
p5
I56
sS'E8:39:35:F5:AC:F0'
p6
I76
sS'00:0F:61:53:E6:B0'
p7
I60
sS'00:0F:61:54:5F:64'
p8
I56
sS'00:0F:61:53:E6:B2'
p9
I58
sS'00:0F:61:53:E6:B3'
p10
I70
sS'00:03:52:5B:8C:A5'
p11
I100
sS'E8:39:35:F5:AC:F4'
p12
I76
sS'00:03:52:5B:8C:A0'
p13
I88
sS'00:03:52:5B:8C:A2'
p14
I100
sS'58:6D:8F:02:B7:DC'
p15
I58
sS'00:03:52:5B:8C:A4'
p16
I100
sS'E8:39:35:F5:AC:F2'
p17
I76
sS'00:0F:61:53:E6:B5'
p18
I60
sS'E8:39:35:F5:AC:F5'
p19
I76
sS'54:A0:50:5B:20:80'
p20
I56
sS'54:A0:50:5B:4D:E8'
p21
I88
sS'E8:39:35:F5:FC:70'
p22
I56
ss(F23.416072818626464
F12.310344814881883
tp23
(dp24
S'00:0F:61:53:E6:B5'
p25
I92
sS'00:0F:61:53:E6:B4'
p26
I92
sS'E8:39:35:F5:FC:70'
p27
I100
sS'00:0F:61:53:E6:B0'
p28
I92
sS'00:0F:61:53:E6:B3'
p29
I92
sS'00:0F:61:53:E6:B2'
p30
I92
sS'00:03:52:5B:8C:A4'
p31
I74
sS'00:03:52:5B:8C:A5'
p32
I74
sS'00:0F:61:51:EE:C2'
p33
I58
sS'00:03:52:5B:8C:A0'
p34
I74
sS'00:03:52:5B:8C:A2'
p35
I74
sS'00:0F:61:51:EE:C4'
p36
I58
sS'E8:39:35:F5:AC:F4'
p37
I44
sS'00:0F:61:51:EE:C0'
p38
I58
sS'00:0F:61:51:EE:C3'
p39
I58
sS'54:A0:50:5B:20:80'
p40
I47
sS'E8:39:35:F5:FC:76'
p41
I100
sS'54:A0:50:5B:4D:E8'
p42
I42
sS'54:A0:50:5B:32:58'
p43
I100
ss(F16.50241419808042
F19.254584549795542
tp44
(dp45
S'00:0F:61:53:E6:B5'
p46
I92
sS'00:0F:61:53:E6:B4'
p47
I92
sS'E8:39:35:F5:FC:70'
p48
I100
sS'00:0F:61:53:E6:B0'
p49
I92
sS'00:0F:61:53:E6:B3'
p50
I92
sS'00:0F:61:53:E6:B2'
p51
I92
sS'00:03:52:5B:8C:A4'
p52
I74
sS'00:03:52:5B:8C:A5'
p53
I74
sS'00:0F:61:51:EE:C2'
p54
I58
sS'00:03:52:5B:8C:A0'
p55
I74
sS'00:03:52:5B:8C:A2'
p56
I74
sS'00:0F:61:51:EE:C4'
p57
I58
sS'E8:39:35:F5:AC:F4'
p58
I44
sS'00:0F:61:51:EE:C0'
p59
I58
sS'00:0F:61:51:EE:C3'
p60
I58
sS'54:A0:50:5B:20:80'
p61
I47
sS'E8:39:35:F5:FC:76'
p62
I100
sS'54:A0:50:5B:4D:E8'
p63
I42
sS'54:A0:50:5B:32:58'
p64
I100
ss(F14.24296690864619
F19.197025440397027
tp65
(dp66
S'00:0F:61:53:E6:B5'
p67
I92
sS'00:0F:61:53:E6:B4'
p68
I92
sS'E8:39:35:F5:FC:70'
p69
I100
sS'00:0F:61:53:E6:B0'
p70
I92
sS'00:0F:61:53:E6:B3'
p71
I92
sS'00:0F:61:53:E6:B2'
p72
I92
sS'00:03:52:5B:8C:A4'
p73
I74
sS'00:03:52:5B:8C:A5'
p74
I74
sS'00:0F:61:51:EE:C2'
p75
I58
sS'00:03:52:5B:8C:A0'
p76
I74
sS'00:03:52:5B:8C:A2'
p77
I74
sS'00:0F:61:51:EE:C4'
p78
I58
sS'E8:39:35:F5:AC:F4'
p79
I44
sS'00:0F:61:51:EE:C0'
p80
I58
sS'00:0F:61:51:EE:C3'
p81
I58
sS'54:A0:50:5B:20:80'
p82
I47
sS'E8:39:35:F5:FC:76'
p83
I100
sS'54:A0:50:5B:4D:E8'
p84
I42
sS'54:A0:50:5B:32:58'
p85
I100
ss(F23.579351504914648
F15.78746046525743
tp86
(dp87
S'00:0F:61:53:E6:B5'
p88
I92
sS'00:0F:61:53:E6:B4'
p89
I92
sS'E8:39:35:F5:FC:70'
p90
I100
sS'00:0F:61:53:E6:B0'
p91
I92
sS'00:0F:61:53:E6:B3'
p92
I92
sS'00:0F:61:53:E6:B2'
p93
I92
sS'00:03:52:5B:8C:A4'
p94
I74
sS'00:03:52:5B:8C:A5'
p95
I74
sS'00:0F:61:51:EE:C2'
p96
I58
sS'00:03:52:5B:8C:A0'
p97
I74
sS'00:03:52:5B:8C:A2'
p98
I74
sS'00:0F:61:51:EE:C4'
p99
I58
sS'E8:39:35:F5:AC:F4'
p100
I44
sS'00:0F:61:51:EE:C0'
p101
I58
sS'00:0F:61:51:EE:C3'
p102
I58
sS'54:A0:50:5B:20:80'
p103
I47
sS'E8:39:35:F5:FC:76'
p104
I100
sS'54:A0:50:5B:4D:E8'
p105
I42
sS'54:A0:50:5B:32:58'
p106
I100
ss(F23.35417288060182
F8.774844666521902
tp107
(dp108
S'00:0F:61:53:E6:B5'
p109
I92
sS'00:0F:61:53:E6:B4'
p110
I92
sS'E8:39:35:F5:FC:70'
p111
I100
sS'00:0F:61:53:E6:B0'
p112
I92
sS'00:0F:61:53:E6:B3'
p113
I92
sS'00:0F:61:53:E6:B2'
p114
I92
sS'00:03:52:5B:8C:A4'
p115
I74
sS'00:03:52:5B:8C:A5'
p116
I74
sS'00:0F:61:51:EE:C2'
p117
I58
sS'00:03:52:5B:8C:A0'
p118
I74
sS'00:03:52:5B:8C:A2'
p119
I74
sS'00:0F:61:51:EE:C4'
p120
I58
sS'E8:39:35:F5:AC:F4'
p121
I44
sS'00:0F:61:51:EE:C0'
p122
I58
sS'00:0F:61:51:EE:C3'
p123
I58
sS'54:A0:50:5B:20:80'
p124
I47
sS'E8:39:35:F5:FC:76'
p125
I100
sS'54:A0:50:5B:4D:E8'
p126
I42
sS'54:A0:50:5B:32:58'
p127
I100
ss(F11.207269254260298
F15.786165717920587
tp128
(dp129
S'E8:39:35:F5:AC:F2'
p130
I76
sS'E8:39:35:F5:AC:F0'
p131
I76
sS'E8:39:35:F5:AC:F5'
p132
I76
sS'E8:39:35:F5:AC:F4'
p133
I76
sS'54:A0:50:5B:4D:E8'
p134
I88
sS'E8:39:35:F5:FC:70'
p135
I56
sS'00:03:52:5B:8C:A4'
p136
I100
sS'00:03:52:5B:8C:A5'
p137
I100
sS'00:03:52:5B:8C:A0'
p138
I88
sS'00:03:52:5B:8C:A2'
p139
I100
sS'54:A0:50:5B:20:80'
p140
I56
sS'00:0F:61:53:E6:B5'
p141
I60
sS'00:0F:61:53:E6:B4'
p142
I56
sS'00:0F:61:53:E6:B0'
p143
I60
sS'00:0F:61:53:E6:B3'
p144
I70
sS'00:0F:61:53:E6:B2'
p145
I58
sS'00:0F:61:54:5F:62'
p146
I48
sS'00:0F:61:54:5F:63'
p147
I56
sS'00:0F:61:54:5F:60'
p148
I56
sS'00:0F:61:54:5F:64'
p149
I56
sS'58:6D:8F:02:B7:DC'
p150
I58
sS'54:A0:50:5B:32:58'
p151
I44
ss(F13.93395949666541
F6.03341525355908
tp152
(dp153
S'E8:39:35:F5:AC:F2'
p154
I76
sS'E8:39:35:F5:AC:F0'
p155
I76
sS'E8:39:35:F5:AC:F5'
p156
I76
sS'E8:39:35:F5:AC:F4'
p157
I76
sS'54:A0:50:5B:4D:E8'
p158
I43
sS'E8:39:35:F5:FC:70'
p159
I56
sS'E8:39:35:F5:FC:76'
p160
I100
sS'E8:39:35:F5:FC:74'
p161
I100
sS'00:03:52:5B:8C:A4'
p162
I92
sS'00:03:52:5B:8C:A5'
p163
I92
sS'00:03:52:5B:8C:A0'
p164
I92
sS'00:03:52:5B:8C:A2'
p165
I96
sS'54:A0:50:5B:20:80'
p166
I56
sS'00:0F:61:53:E6:B5'
p167
I56
sS'00:0F:61:53:E6:B4'
p168
I56
sS'00:0F:61:53:E6:B0'
p169
I56
sS'00:0F:61:53:E6:B3'
p170
I48
sS'00:0F:61:53:E6:B2'
p171
I48
sS'E8:39:35:F5:FC:54'
p172
I47
sS'00:0F:61:54:5F:62'
p173
I48
sS'00:0F:61:54:5F:63'
p174
I56
sS'00:0F:61:54:5F:60'
p175
I56
sS'00:0F:61:54:5F:64'
p176
I56
sS'58:6D:8F:02:B7:DC'
p177
I58
sS'54:A0:50:5B:32:58'
p178
I100
ss(F19.783995529959288
F19.04177690241474
tp179
(dp180
S'00:0F:61:53:E6:B5'
p181
I92
sS'00:0F:61:53:E6:B4'
p182
I92
sS'E8:39:35:F5:FC:70'
p183
I100
sS'00:0F:61:53:E6:B0'
p184
I92
sS'00:0F:61:53:E6:B3'
p185
I92
sS'00:0F:61:53:E6:B2'
p186
I92
sS'00:03:52:5B:8C:A4'
p187
I74
sS'00:03:52:5B:8C:A5'
p188
I74
sS'00:0F:61:51:EE:C2'
p189
I58
sS'00:03:52:5B:8C:A0'
p190
I74
sS'00:03:52:5B:8C:A2'
p191
I74
sS'00:0F:61:51:EE:C4'
p192
I58
sS'E8:39:35:F5:AC:F4'
p193
I44
sS'00:0F:61:51:EE:C0'
p194
I58
sS'00:0F:61:51:EE:C3'
p195
I58
sS'54:A0:50:5B:20:80'
p196
I47
sS'E8:39:35:F5:FC:76'
p197
I100
sS'54:A0:50:5B:4D:E8'
p198
I42
sS'54:A0:50:5B:32:58'
p199
I100
ss(F11.883721478267114
F6.450266450533288
tp200
(dp201
S'00:0F:61:54:5F:62'
p202
I48
sS'00:0F:61:54:5F:63'
p203
I56
sS'00:0F:61:54:5F:60'
p204
I56
sS'E8:39:35:F5:AC:F0'
p205
I76
sS'00:0F:61:53:E6:B0'
p206
I60
sS'00:0F:61:54:5F:64'
p207
I56
sS'00:0F:61:53:E6:B2'
p208
I58
sS'00:0F:61:53:E6:B3'
p209
I70
sS'00:03:52:5B:8C:A5'
p210
I100
sS'E8:39:35:F5:AC:F4'
p211
I76
sS'00:03:52:5B:8C:A0'
p212
I88
sS'00:03:52:5B:8C:A2'
p213
I100
sS'58:6D:8F:02:B7:DC'
p214
I58
sS'00:03:52:5B:8C:A4'
p215
I100
sS'E8:39:35:F5:AC:F2'
p216
I76
sS'00:0F:61:53:E6:B5'
p217
I60
sS'E8:39:35:F5:AC:F5'
p218
I76
sS'54:A0:50:5B:20:80'
p219
I56
sS'54:A0:50:5B:4D:E8'
p220
I88
sS'E8:39:35:F5:FC:70'
p221
I56
ss(F23.73276773166525
F6.646706064008584
tp222
(dp223
S'00:0F:61:53:E6:B5'
p224
I92
sS'00:0F:61:53:E6:B4'
p225
I92
sS'E8:39:35:F5:FC:70'
p226
I100
sS'00:0F:61:53:E6:B0'
p227
I92
sS'00:0F:61:53:E6:B3'
p228
I92
sS'00:0F:61:53:E6:B2'
p229
I92
sS'00:03:52:5B:8C:A4'
p230
I74
sS'00:03:52:5B:8C:A5'
p231
I74
sS'00:0F:61:51:EE:C2'
p232
I58
sS'00:03:52:5B:8C:A0'
p233
I74
sS'00:03:52:5B:8C:A2'
p234
I74
sS'00:0F:61:51:EE:C4'
p235
I58
sS'E8:39:35:F5:AC:F4'
p236
I44
sS'00:0F:61:51:EE:C0'
p237
I58
sS'00:0F:61:51:EE:C3'
p238
I58
sS'54:A0:50:5B:20:80'
p239
I47
sS'E8:39:35:F5:FC:76'
p240
I100
sS'54:A0:50:5B:4D:E8'
p241
I42
sS'54:A0:50:5B:32:58'
p242
I100
ss(F20.26931051682665
F5.7426486161220405
tp243
(dp244
S'00:0F:61:53:E6:B5'
p245
I92
sS'00:0F:61:53:E6:B4'
p246
I92
sS'E8:39:35:F5:FC:70'
p247
I100
sS'00:0F:61:53:E6:B0'
p248
I92
sS'00:0F:61:53:E6:B3'
p249
I92
sS'00:0F:61:53:E6:B2'
p250
I92
sS'00:03:52:5B:8C:A4'
p251
I74
sS'00:03:52:5B:8C:A5'
p252
I74
sS'00:0F:61:51:EE:C2'
p253
I58
sS'00:03:52:5B:8C:A0'
p254
I74
sS'00:03:52:5B:8C:A2'
p255
I74
sS'00:0F:61:51:EE:C4'
p256
I58
sS'E8:39:35:F5:AC:F4'
p257
I44
sS'00:0F:61:51:EE:C0'
p258
I58
sS'00:0F:61:51:EE:C3'
p259
I58
sS'54:A0:50:5B:20:80'
p260
I47
sS'E8:39:35:F5:FC:76'
p261
I100
sS'54:A0:50:5B:4D:E8'
p262
I42
sS'54:A0:50:5B:32:58'
p263
I100
ss(F18.663791568204736
F5.718030274472962
tp264
(dp265
S'00:0F:61:53:E6:B5'
p266
I56
sS'00:0F:61:53:E6:B4'
p267
I56
sS'00:0F:61:53:E6:B0'
p268
I56
sS'00:0F:61:53:E6:B3'
p269
I48
sS'00:0F:61:53:E6:B2'
p270
I48
sS'00:03:52:5B:8C:A4'
p271
I92
sS'00:03:52:5B:8C:A5'
p272
I92
sS'E8:39:35:F5:FC:74'
p273
I100
sS'00:03:52:5B:8C:A0'
p274
I92
sS'00:03:52:5B:8C:A2'
p275
I96
sS'58:6D:8F:02:B7:DC'
p276
I58
sS'E8:39:35:F5:FC:76'
p277
I100
sS'E8:39:35:F5:FC:54'
p278
I47
sS'54:A0:50:5B:4D:E8'
p279
I43
sS'54:A0:50:5B:32:58'
p280
I100
ss(F11.720469806267433
F18.22570645708417
tp281
(dp282
S'00:0F:61:54:5F:62'
p283
I56
sS'00:0F:61:54:5F:63'
p284
I58
sS'00:0F:61:54:5F:60'
p285
I48
sS'E8:39:35:F5:AC:F0'
p286
I58
sS'00:0F:61:53:E6:B3'
p287
I58
sS'00:0F:61:54:5F:64'
p288
I48
sS'00:0F:61:53:E6:B2'
p289
I56
sS'00:03:52:5B:8C:A4'
p290
I76
sS'00:03:52:5B:8C:A5'
p291
I72
sS'E8:39:35:F5:AC:F4'
p292
I74
sS'E8:39:35:F5:AC:F2'
p293
I68
sS'58:6D:8F:02:B7:DC'
p294
I55
sS'E8:39:35:F5:AC:F5'
p295
I76
sS'00:0F:61:53:E6:B4'
p296
I56
sS'00:0F:61:53:E6:B5'
p297
I56
sS'54:A0:50:5B:20:80'
p298
I70
sS'54:A0:50:5B:4D:E8'
p299
I74
sS'54:A0:50:5B:32:58'
p300
I44
ss(F10.480274555143968
F8.90347300638918
tp301
(dp302
S'00:0F:61:54:5F:62'
p303
I48
sS'00:0F:61:54:5F:63'
p304
I56
sS'00:0F:61:54:5F:60'
p305
I56
sS'E8:39:35:F5:AC:F0'
p306
I76
sS'00:0F:61:53:E6:B0'
p307
I60
sS'00:0F:61:54:5F:64'
p308
I56
sS'00:0F:61:53:E6:B2'
p309
I58
sS'00:0F:61:53:E6:B3'
p310
I70
sS'00:03:52:5B:8C:A5'
p311
I100
sS'E8:39:35:F5:AC:F4'
p312
I76
sS'00:03:52:5B:8C:A0'
p313
I88
sS'00:03:52:5B:8C:A2'
p314
I100
sS'58:6D:8F:02:B7:DC'
p315
I58
sS'00:03:52:5B:8C:A4'
p316
I100
sS'E8:39:35:F5:AC:F2'
p317
I76
sS'00:0F:61:53:E6:B5'
p318
I60
sS'E8:39:35:F5:AC:F5'
p319
I76
sS'54:A0:50:5B:20:80'
p320
I56
sS'54:A0:50:5B:4D:E8'
p321
I88
sS'E8:39:35:F5:FC:70'
p322
I56
ss(F11.640831827581371
F19.505710995516093
tp323
(dp324
S'00:0F:61:53:E6:B5'
p325
I92
sS'00:0F:61:53:E6:B4'
p326
I92
sS'E8:39:35:F5:FC:70'
p327
I100
sS'00:0F:61:53:E6:B0'
p328
I92
sS'00:0F:61:53:E6:B3'
p329
I92
sS'00:0F:61:53:E6:B2'
p330
I92
sS'00:03:52:5B:8C:A4'
p331
I74
sS'00:03:52:5B:8C:A5'
p332
I74
sS'00:0F:61:51:EE:C2'
p333
I58
sS'00:03:52:5B:8C:A0'
p334
I74
sS'00:03:52:5B:8C:A2'
p335
I74
sS'00:0F:61:51:EE:C4'
p336
I58
sS'E8:39:35:F5:AC:F4'
p337
I44
sS'00:0F:61:51:EE:C0'
p338
I58
sS'00:0F:61:51:EE:C3'
p339
I58
sS'54:A0:50:5B:20:80'
p340
I47
sS'E8:39:35:F5:FC:76'
p341
I100
sS'54:A0:50:5B:4D:E8'
p342
I42
sS'54:A0:50:5B:32:58'
p343
I100
ss(F23.620214323141962
F18.79427335271777
tp344
(dp345
S'00:0F:61:53:E6:B5'
p346
I92
sS'00:0F:61:53:E6:B4'
p347
I92
sS'E8:39:35:F5:FC:70'
p348
I100
sS'00:0F:61:53:E6:B0'
p349
I92
sS'00:0F:61:53:E6:B3'
p350
I92
sS'00:0F:61:53:E6:B2'
p351
I92
sS'00:03:52:5B:8C:A4'
p352
I74
sS'00:03:52:5B:8C:A5'
p353
I74
sS'00:0F:61:51:EE:C2'
p354
I58
sS'00:03:52:5B:8C:A0'
p355
I74
sS'00:03:52:5B:8C:A2'
p356
I74
sS'00:0F:61:51:EE:C4'
p357
I58
sS'E8:39:35:F5:AC:F4'
p358
I44
sS'00:0F:61:51:EE:C0'
p359
I58
sS'00:0F:61:51:EE:C3'
p360
I58
sS'54:A0:50:5B:20:80'
p361
I47
sS'E8:39:35:F5:FC:76'
p362
I100
sS'54:A0:50:5B:4D:E8'
p363
I42
sS'54:A0:50:5B:32:58'
p364
I100
ss.